target datalayout = "e-m:e-p270:32:32-p271:32:32-p272:64:64-i64:64-i128:128-f80:128-n8:16:32:64-S128"
target triple = "x86_64-pc-linux-gnu"

%struct.OSSL_TIME = type { i64 }
%struct.ssl_st = type { i32, ptr, ptr, ptr, %struct.CRYPTO_REF_COUNT, ptr, %struct.crypto_ex_data_st }
%struct.CRYPTO_REF_COUNT = type { i32 }
%struct.crypto_ex_data_st = type { ptr, ptr }
%struct.ssl_method_st = type { i32, i32, i64, ptr, ptr, ptr, ptr, ptr, ptr, ptr, ptr, ptr, ptr, ptr, ptr, ptr, ptr, ptr, ptr, ptr, ptr, ptr, ptr, ptr, ptr, ptr, ptr, ptr, ptr, ptr, ptr, ptr }
%struct.ssl_connection_st = type { %struct.ssl_st, ptr, i32, ptr, ptr, ptr, i32, ptr, i32, i32, i32, i32, %struct.OSSL_TIME, %struct.OSSL_TIME, %struct.ossl_statem_st, i32, ptr, ptr, i64, i64, i64, %struct.ossl_quic_tls_callbacks_st, ptr, ptr, %struct.anon, ptr, ptr, ptr, i32, ptr, %struct.ssl_dane_st, ptr, ptr, ptr, ptr, i32, [64 x i8], [64 x i8], [64 x i8], [64 x i8], [64 x i8], [64 x i8], [64 x i8], [64 x i8], [64 x i8], [64 x i8], [64 x i8], [64 x i8], ptr, [64 x i8], i64, i32, i64, [32 x i8], ptr, ptr, ptr, i64, ptr, [32 x i8], i64, i32, ptr, ptr, i32, i32, ptr, ptr, ptr, ptr, ptr, i64, ptr, ptr, i64, i32, i32, i32, i64, i32, i32, i64, i64, i64, %struct.anon.1, ptr, i32, ptr, ptr, ptr, i32, ptr, ptr, ptr, i32, i32, i32, i32, ptr, i64, i32, ptr, %struct.srp_ctx_st, ptr, %struct.record_layer_st, ptr, ptr, ptr, ptr, i64, i32, i32, i32, i64, i64, i64, ptr, ptr, ptr, ptr, ptr, i64, ptr, i64, ptr, i64 }
%struct.ossl_statem_st = type { i32, i32, i32, i32, i32, i32, i32, i32, i32, i32, i32, i32, i32, ptr, ptr, ptr, i8 }
%struct.ossl_quic_tls_callbacks_st = type { ptr, ptr, ptr, ptr, ptr, ptr }
%struct.anon = type { i64, [32 x i8], [32 x i8], ptr, ptr, i32, i32, i32, i32, [2 x i8], i32, i32, i32, i32, %struct.anon.0, [64 x i8], i64, [64 x i8], i64, i32, i32, ptr, i64, ptr, i64, i32, i8, i8, i16, ptr, i16 }
%struct.anon.0 = type { [128 x i8], i64, [128 x i8], i64, i64, i32, ptr, ptr, [4 x ptr], [4 x i16], i64, i32, ptr, i64, ptr, i64, ptr, ptr, ptr, i32, i64, ptr, i32, ptr, i64, ptr, i64, ptr, i64, ptr, ptr, ptr, ptr, i64, i64, ptr, ptr, i32, i32, i32, i32 }
%struct.ssl_dane_st = type { ptr, ptr, ptr, ptr, ptr, i32, i32, i32, i64 }
%struct.anon.1 = type { [29 x i8], ptr, ptr, ptr, i32, ptr, i16, i32, %struct.anon.2, i32, i32, i64, ptr, i64, ptr, i64, ptr, i64, ptr, i64, ptr, i64, ptr, ptr, ptr, ptr, ptr, ptr, ptr, i64, ptr, i64, i32, i32, i32, i32, ptr, i64, i32, i8, i32, [4 x i32], i32, i8, i8, i8, i8 }
%struct.anon.2 = type { ptr, ptr, ptr, i64 }
%struct.srp_ctx_st = type { ptr, ptr, ptr, ptr, ptr, ptr, ptr, ptr, ptr, ptr, ptr, ptr, ptr, ptr, i32, i64 }
%struct.record_layer_st = type { ptr, ptr, ptr, ptr, ptr, ptr, ptr, ptr, i64, i32, i64, [4 x i8], i64, i64, i8, ptr, i32, ptr, ptr, ptr, i64, i64, i64, i64, [32 x %struct.tls_record_st] }
%struct.tls_record_st = type { ptr, i32, i8, ptr, ptr, i64, i64, i16, [8 x i8] }
%struct.ssl_ctx_st = type { ptr, ptr, ptr, ptr, ptr, ptr, ptr, i64, ptr, ptr, i32, %struct.OSSL_TIME, ptr, ptr, ptr, %struct.anon.3, %struct.CRYPTO_REF_COUNT, ptr, ptr, ptr, ptr, ptr, ptr, ptr, ptr, ptr, %struct.crypto_ex_data_st, ptr, ptr, ptr, ptr, ptr, ptr, ptr, i64, i32, i32, i32, i64, ptr, ptr, i32, ptr, ptr, i32, i64, [32 x i8], ptr, ptr, ptr, i32, ptr, ptr, ptr, i64, i64, i64, i64, ptr, ptr, ptr, ptr, ptr, %struct.anon.4, ptr, ptr, ptr, ptr, %struct.srp_ctx_st, %struct.dane_ctx_st, ptr, ptr, ptr, ptr, i32, i32, ptr, ptr, i64, i64, ptr, ptr, ptr, i64, ptr, ptr, i32, ptr, ptr, ptr, [14 x i32], [24 x ptr], [14 x ptr], [14 x i64], i64, ptr, ptr, ptr, i64, i64, ptr, i64, i64, i32, i32, i32, i32, ptr, i64, ptr, i64, i64, ptr, ptr }
%struct.anon.3 = type { i32, i32, i32, i32, i32, i32, i32, i32, i32, i32, i32 }
%struct.anon.4 = type { ptr, ptr, [16 x i8], ptr, ptr, ptr, ptr, ptr, i32, i8, i64, ptr, i64, ptr, i64, ptr, i64, ptr, ptr, i64, ptr, ptr, ptr, i64, ptr, ptr, ptr, ptr, [32 x i8] }
%struct.dane_ctx_st = type { ptr, ptr, i8, i64 }
%struct.ssl3_enc_method = type { ptr, ptr, ptr, ptr, ptr, i64, ptr, i64, ptr, ptr, i32, ptr, ptr, ptr }
%struct.sigalg_lookup_st = type { ptr, i16, i32, i32, i32, i32, i32, i32, i32 }

@.str.2 = private unnamed_addr constant [24 x i8] c"../openssl/ssl/t1_lib.c\00", align 1
@__func__.tls12_copy_sigalgs = private unnamed_addr constant [19 x i8] c"tls12_copy_sigalgs\00", align 1

; Function Attrs: nounwind uwtable
define internal ptr @tls1_lookup_sigalg(ptr noundef %0, i16 noundef zeroext %1) #1 {
  %3 = alloca ptr, align 8
  %4 = alloca ptr, align 8
  %5 = alloca i16, align 2
  %6 = alloca i64, align 8
  %7 = alloca ptr, align 8
  %8 = alloca i32, align 4
  store ptr %0, ptr %4, align 8, !tbaa !25
  store i16 %1, ptr %5, align 2, !tbaa !100
  call void @llvm.lifetime.start.p0(i64 8, ptr %6) #8
  call void @llvm.lifetime.start.p0(i64 8, ptr %7) #8
  store i64 0, ptr %6, align 8, !tbaa !3
  %9 = load ptr, ptr %4, align 8, !tbaa !25
  %10 = getelementptr inbounds nuw %struct.ssl_connection_st, ptr %9, i32 0, i32 0
  %11 = getelementptr inbounds nuw %struct.ssl_st, ptr %10, i32 0, i32 1
  %12 = load ptr, ptr %11, align 8, !tbaa !137
  %13 = getelementptr inbounds nuw %struct.ssl_ctx_st, ptr %12, i32 0, i32 95
  %14 = load ptr, ptr %13, align 8, !tbaa !224
  store ptr %14, ptr %7, align 8, !tbaa !201
  br label %15

15:                                               ; preds = %41, %2
  %16 = load i64, ptr %6, align 8, !tbaa !3
  %17 = load ptr, ptr %4, align 8, !tbaa !25
  %18 = getelementptr inbounds nuw %struct.ssl_connection_st, ptr %17, i32 0, i32 0
  %19 = getelementptr inbounds nuw %struct.ssl_st, ptr %18, i32 0, i32 1
  %20 = load ptr, ptr %19, align 8, !tbaa !137
  %21 = getelementptr inbounds nuw %struct.ssl_ctx_st, ptr %20, i32 0, i32 94
  %22 = load i64, ptr %21, align 8, !tbaa !226
  %23 = icmp ult i64 %16, %22
  br i1 %23, label %24, label %46

24:                                               ; preds = %15
  %25 = load ptr, ptr %7, align 8, !tbaa !201
  %26 = getelementptr inbounds nuw %struct.sigalg_lookup_st, ptr %25, i32 0, i32 1
  %27 = load i16, ptr %26, align 8, !tbaa !218
  %28 = zext i16 %27 to i32
  %29 = load i16, ptr %5, align 2, !tbaa !100
  %30 = zext i16 %29 to i32
  %31 = icmp eq i32 %28, %30
  br i1 %31, label %32, label %40

32:                                               ; preds = %24
  %33 = load ptr, ptr %7, align 8, !tbaa !201
  %34 = getelementptr inbounds nuw %struct.sigalg_lookup_st, ptr %33, i32 0, i32 8
  %35 = load i32, ptr %34, align 4, !tbaa !208
  %36 = icmp ne i32 %35, 0
  br i1 %36, label %38, label %37

37:                                               ; preds = %32
  store ptr null, ptr %3, align 8
  store i32 1, ptr %8, align 4
  br label %47

38:                                               ; preds = %32
  %39 = load ptr, ptr %7, align 8, !tbaa !201
  store ptr %39, ptr %3, align 8
  store i32 1, ptr %8, align 4
  br label %47

40:                                               ; preds = %24
  br label %41

41:                                               ; preds = %40
  %42 = load ptr, ptr %7, align 8, !tbaa !201
  %43 = getelementptr inbounds nuw %struct.sigalg_lookup_st, ptr %42, i32 1
  store ptr %43, ptr %7, align 8, !tbaa !201
  %44 = load i64, ptr %6, align 8, !tbaa !3
  %45 = add i64 %44, 1
  store i64 %45, ptr %6, align 8, !tbaa !3
  br label %15, !llvm.loop !245

46:                                               ; preds = %15
  store ptr null, ptr %3, align 8
  store i32 1, ptr %8, align 4
  br label %47

47:                                               ; preds = %46, %38, %37
  call void @llvm.lifetime.end.p0(i64 8, ptr %7) #8
  call void @llvm.lifetime.end.p0(i64 8, ptr %6) #8
  %48 = load ptr, ptr %3, align 8
  ret ptr %48
}

; Function Attrs: nounwind uwtable
define i32 @tls12_copy_sigalgs(ptr noundef %0, ptr noundef %1, ptr noundef %2, i64 noundef %3) #1 {
  %5 = alloca i32, align 4
  %6 = alloca ptr, align 8
  %7 = alloca ptr, align 8
  %8 = alloca ptr, align 8
  %9 = alloca i64, align 8
  %10 = alloca i64, align 8
  %11 = alloca i32, align 4
  %12 = alloca ptr, align 8
  %13 = alloca i32, align 4
  store ptr %0, ptr %6, align 8, !tbaa !25
  store ptr %1, ptr %7, align 8, !tbaa !318
  store ptr %2, ptr %8, align 8, !tbaa !142
  store i64 %3, ptr %9, align 8, !tbaa !3
  call void @llvm.lifetime.start.p0(i64 8, ptr %10) #8
  call void @llvm.lifetime.start.p0(i64 4, ptr %11) #8
  store i32 0, ptr %11, align 4, !tbaa !128
  store i64 0, ptr %10, align 8, !tbaa !3
  br label %14

14:                                               ; preds = %89, %4
  %15 = load i64, ptr %10, align 8, !tbaa !3
  %16 = load i64, ptr %9, align 8, !tbaa !3
  %17 = icmp ult i64 %15, %16
  br i1 %17, label %18, label %94

18:                                               ; preds = %14
  call void @llvm.lifetime.start.p0(i64 8, ptr %12) #8
  %19 = load ptr, ptr %6, align 8, !tbaa !25
  %20 = load ptr, ptr %8, align 8, !tbaa !142
  %21 = load i16, ptr %20, align 2, !tbaa !100
  %22 = call ptr @tls1_lookup_sigalg(ptr noundef %19, i16 noundef zeroext %21)
  store ptr %22, ptr %12, align 8, !tbaa !201
  %23 = load ptr, ptr %12, align 8, !tbaa !201
  %24 = icmp eq ptr %23, null
  br i1 %24, label %30, label %25

25:                                               ; preds = %18
  %26 = load ptr, ptr %6, align 8, !tbaa !25
  %27 = load ptr, ptr %12, align 8, !tbaa !201
  %28 = call i32 @tls12_sigalg_allowed(ptr noundef %26, i32 noundef 327691, ptr noundef %27)
  %29 = icmp ne i32 %28, 0
  br i1 %29, label %31, label %30

30:                                               ; preds = %25, %18
  store i32 4, ptr %13, align 4
  br label %86

31:                                               ; preds = %25
  %32 = load ptr, ptr %7, align 8, !tbaa !318
  %33 = load ptr, ptr %8, align 8, !tbaa !142
  %34 = load i16, ptr %33, align 2, !tbaa !100
  %35 = zext i16 %34 to i64
  %36 = call i32 @WPACKET_put_bytes__(ptr noundef %32, i64 noundef %35, i64 noundef 2)
  %37 = icmp ne i32 %36, 0
  br i1 %37, label %39, label %38

38:                                               ; preds = %31
  store i32 0, ptr %5, align 4
  store i32 1, ptr %13, align 4
  br label %86

39:                                               ; preds = %31
  %40 = load i32, ptr %11, align 4, !tbaa !128
  %41 = icmp eq i32 %40, 0
  br i1 %41, label %42, label %85

42:                                               ; preds = %39
  %43 = load ptr, ptr %6, align 8, !tbaa !25
  %44 = getelementptr inbounds nuw %struct.ssl_connection_st, ptr %43, i32 0, i32 0
  %45 = getelementptr inbounds nuw %struct.ssl_st, ptr %44, i32 0, i32 3
  %46 = load ptr, ptr %45, align 8, !tbaa !152
  %47 = getelementptr inbounds nuw %struct.ssl_method_st, ptr %46, i32 0, i32 28
  %48 = load ptr, ptr %47, align 8, !tbaa !153
  %49 = getelementptr inbounds nuw %struct.ssl3_enc_method, ptr %48, i32 0, i32 10
  %50 = load i32, ptr %49, align 8, !tbaa !154
  %51 = and i32 %50, 8
  %52 = icmp ne i32 %51, 0
  br i1 %52, label %84, label %53

53:                                               ; preds = %42
  %54 = load ptr, ptr %6, align 8, !tbaa !25
  %55 = getelementptr inbounds nuw %struct.ssl_connection_st, ptr %54, i32 0, i32 0
  %56 = getelementptr inbounds nuw %struct.ssl_st, ptr %55, i32 0, i32 3
  %57 = load ptr, ptr %56, align 8, !tbaa !152
  %58 = getelementptr inbounds nuw %struct.ssl_method_st, ptr %57, i32 0, i32 0
  %59 = load i32, ptr %58, align 8, !tbaa !78
  %60 = icmp sge i32 %59, 772
  br i1 %60, label %61, label %84

61:                                               ; preds = %53
  %62 = load ptr, ptr %6, align 8, !tbaa !25
  %63 = getelementptr inbounds nuw %struct.ssl_connection_st, ptr %62, i32 0, i32 0
  %64 = getelementptr inbounds nuw %struct.ssl_st, ptr %63, i32 0, i32 3
  %65 = load ptr, ptr %64, align 8, !tbaa !152
  %66 = getelementptr inbounds nuw %struct.ssl_method_st, ptr %65, i32 0, i32 0
  %67 = load i32, ptr %66, align 8, !tbaa !78
  %68 = icmp ne i32 %67, 65536
  br i1 %68, label %69, label %84

69:                                               ; preds = %61
  %70 = load ptr, ptr %12, align 8, !tbaa !201
  %71 = getelementptr inbounds nuw %struct.sigalg_lookup_st, ptr %70, i32 0, i32 4
  %72 = load i32, ptr %71, align 4, !tbaa !209
  %73 = icmp ne i32 %72, 6
  br i1 %73, label %74, label %85

74:                                               ; preds = %69
  %75 = load ptr, ptr %12, align 8, !tbaa !201
  %76 = getelementptr inbounds nuw %struct.sigalg_lookup_st, ptr %75, i32 0, i32 2
  %77 = load i32, ptr %76, align 4, !tbaa !204
  %78 = icmp ne i32 %77, 64
  br i1 %78, label %79, label %85

79:                                               ; preds = %74
  %80 = load ptr, ptr %12, align 8, !tbaa !201
  %81 = getelementptr inbounds nuw %struct.sigalg_lookup_st, ptr %80, i32 0, i32 2
  %82 = load i32, ptr %81, align 4, !tbaa !204
  %83 = icmp ne i32 %82, 675
  br i1 %83, label %84, label %85

84:                                               ; preds = %79, %61, %53, %42
  store i32 1, ptr %11, align 4, !tbaa !128
  br label %85

85:                                               ; preds = %84, %79, %74, %69, %39
  store i32 0, ptr %13, align 4
  br label %86

86:                                               ; preds = %85, %38, %30
  call void @llvm.lifetime.end.p0(i64 8, ptr %12) #8
  %87 = load i32, ptr %13, align 4
  switch i32 %87, label %100 [
    i32 0, label %88
    i32 4, label %89
  ]

88:                                               ; preds = %86
  br label %89

89:                                               ; preds = %88, %86
  %90 = load i64, ptr %10, align 8, !tbaa !3
  %91 = add i64 %90, 1
  store i64 %91, ptr %10, align 8, !tbaa !3
  %92 = load ptr, ptr %8, align 8, !tbaa !142
  %93 = getelementptr inbounds nuw i16, ptr %92, i32 1
  store ptr %93, ptr %8, align 8, !tbaa !142
  br label %14, !llvm.loop !320

94:                                               ; preds = %14
  %95 = load i32, ptr %11, align 4, !tbaa !128
  %96 = icmp eq i32 %95, 0
  br i1 %96, label %97, label %98

97:                                               ; preds = %94
  call void @ERR_new()
  call void @ERR_set_debug(ptr noundef @.str.2, i32 noundef 3335, ptr noundef @__func__.tls12_copy_sigalgs)
  call void (i32, i32, ptr, ...) @ERR_set_error(i32 noundef 20, i32 noundef 118, ptr noundef null)
  br label %98

98:                                               ; preds = %97, %94
  %99 = load i32, ptr %11, align 4, !tbaa !128
  store i32 %99, ptr %5, align 4
  store i32 1, ptr %13, align 4
  br label %100

100:                                              ; preds = %98, %86
  call void @llvm.lifetime.end.p0(i64 4, ptr %11) #8
  call void @llvm.lifetime.end.p0(i64 8, ptr %10) #8
  %101 = load i32, ptr %5, align 4
  ret i32 %101
}