; Function Attrs: nounwind uwtable
define range(i32 0, 2) i32 @tls12_copy_sigalgs(ptr noundef %0, ptr noundef %1, ptr noundef readonly captures(none) %2, i64 noundef %3) local_unnamed_addr #2 {
  %.not45 = icmp eq i64 %3, 0
  br i1 %.not45, label %._crit_edge.thread, label %.lr.ph

.lr.ph:                                           ; preds = %4
  %5 = getelementptr i8, ptr %0, i64 8
  %6 = getelementptr inbounds nuw i8, ptr %0, i64 24
  %7 = load ptr, ptr %5, align 8, !tbaa !126
  %8 = getelementptr inbounds nuw i8, ptr %7, i64 1632
  %9 = load i64, ptr %8, align 8, !tbaa !194
  %10 = icmp eq i64 %9, 0
  br i1 %10, label %._crit_edge.thread, label %.lr.ph.split

.lr.ph.split:                                     ; preds = %.lr.ph, %tls1_lookup_sigalg.exit.thread
  %.02244 = phi i32 [ %.123.ph, %tls1_lookup_sigalg.exit.thread ], [ 0, %.lr.ph ]
  %.02543 = phi i64 [ %49, %tls1_lookup_sigalg.exit.thread ], [ 0, %.lr.ph ]
  %.02642 = phi ptr [ %50, %tls1_lookup_sigalg.exit.thread ], [ %2, %.lr.ph ]
  %11 = load i16, ptr %.02642, align 2, !tbaa !93
  %.val = load ptr, ptr %5, align 8, !tbaa !126
  %12 = getelementptr inbounds nuw i8, ptr %.val, i64 1632
  %13 = load i64, ptr %12, align 8, !tbaa !194
  %.not4.i = icmp eq i64 %13, 0
  br i1 %.not4.i, label %tls1_lookup_sigalg.exit.thread, label %.lr.ph.preheader.i

.lr.ph.preheader.i:                               ; preds = %.lr.ph.split
  %14 = getelementptr inbounds nuw i8, ptr %.val, i64 1640
  %15 = load ptr, ptr %14, align 8, !tbaa !192
  br label %.lr.ph.i

.lr.ph.i:                                         ; preds = %22, %.lr.ph.preheader.i
  %.03.i = phi ptr [ %23, %22 ], [ %15, %.lr.ph.preheader.i ]
  %.092.i = phi i64 [ %24, %22 ], [ 0, %.lr.ph.preheader.i ]
  %16 = getelementptr inbounds nuw i8, ptr %.03.i, i64 8
  %17 = load i16, ptr %16, align 8, !tbaa !187
  %18 = icmp eq i16 %17, %11
  br i1 %18, label %19, label %22

19:                                               ; preds = %.lr.ph.i
  %20 = getelementptr inbounds nuw i8, ptr %.03.i, i64 36
  %21 = load i32, ptr %20, align 4, !tbaa !182
  %.not.i = icmp eq i32 %21, 0
  br i1 %.not.i, label %tls1_lookup_sigalg.exit.thread, label %tls1_lookup_sigalg.exit

22:                                               ; preds = %.lr.ph.i
  %23 = getelementptr inbounds nuw i8, ptr %.03.i, i64 40
  %24 = add nuw i64 %.092.i, 1
  %exitcond.not.i = icmp eq i64 %24, %13
  br i1 %exitcond.not.i, label %tls1_lookup_sigalg.exit.thread, label %.lr.ph.i, !llvm.loop !206

tls1_lookup_sigalg.exit:                          ; preds = %19
  %25 = tail call fastcc i32 @tls12_sigalg_allowed(ptr noundef %0, i32 noundef 327691, ptr noundef nonnull %.03.i)
  %.not = icmp eq i32 %25, 0
  br i1 %.not, label %tls1_lookup_sigalg.exit.thread, label %26

26:                                               ; preds = %tls1_lookup_sigalg.exit
  %27 = load i16, ptr %.02642, align 2, !tbaa !93
  %28 = zext i16 %27 to i64
  %29 = tail call i32 @WPACKET_put_bytes__(ptr noundef %1, i64 noundef %28, i64 noundef 2) #14
  %.not30 = icmp eq i32 %29, 0
  br i1 %.not30, label %.loopexit, label %30

30:                                               ; preds = %26
  %31 = icmp eq i32 %.02244, 0
  br i1 %31, label %32, label %tls1_lookup_sigalg.exit.thread

32:                                               ; preds = %30
  %33 = load ptr, ptr %6, align 8, !tbaa !136
  %34 = getelementptr inbounds nuw i8, ptr %33, i64 216
  %35 = load ptr, ptr %34, align 8, !tbaa !137
  %36 = getelementptr inbounds nuw i8, ptr %35, i64 80
  %37 = load i32, ptr %36, align 8, !tbaa !138
  %38 = and i32 %37, 8
  %.not31 = icmp eq i32 %38, 0
  br i1 %.not31, label %39, label %tls1_lookup_sigalg.exit.thread

39:                                               ; preds = %32
  %40 = load i32, ptr %33, align 8, !tbaa !74
  %41 = icmp slt i32 %40, 772
  %.not32 = icmp eq i32 %40, 65536
  %or.cond = or i1 %41, %.not32
  br i1 %or.cond, label %tls1_lookup_sigalg.exit.thread, label %42

42:                                               ; preds = %39
  %43 = getelementptr inbounds nuw i8, ptr %.03.i, i64 20
  %44 = load i32, ptr %43, align 4, !tbaa !183
  %.not33 = icmp eq i32 %44, 6
  br i1 %.not33, label %tls1_lookup_sigalg.exit.thread, label %45

45:                                               ; preds = %42
  %46 = getelementptr inbounds nuw i8, ptr %.03.i, i64 12
  %47 = load i32, ptr %46, align 4, !tbaa !178
  %switch.selectcmp.case1 = icmp ne i32 %47, 64
  %switch.selectcmp.case2 = icmp ne i32 %47, 675
  %switch.selectcmp.not = and i1 %switch.selectcmp.case1, %switch.selectcmp.case2
  %48 = zext i1 %switch.selectcmp.not to i32
  br label %tls1_lookup_sigalg.exit.thread

tls1_lookup_sigalg.exit.thread:                   ; preds = %22, %32, %39, %45, %19, %.lr.ph.split, %tls1_lookup_sigalg.exit, %42, %30
  %.123.ph = phi i32 [ 1, %30 ], [ 0, %42 ], [ %.02244, %tls1_lookup_sigalg.exit ], [ %.02244, %.lr.ph.split ], [ %.02244, %19 ], [ %48, %45 ], [ 1, %39 ], [ 1, %32 ], [ %.02244, %22 ]
  %49 = add nuw i64 %.02543, 1
  %50 = getelementptr inbounds nuw i8, ptr %.02642, i64 2
  %exitcond.not = icmp eq i64 %49, %3
  br i1 %exitcond.not, label %._crit_edge, label %.lr.ph.split, !llvm.loop !270

._crit_edge:                                      ; preds = %tls1_lookup_sigalg.exit.thread
  %51 = icmp eq i32 %.123.ph, 0
  br i1 %51, label %._crit_edge.thread, label %.loopexit

._crit_edge.thread:                               ; preds = %.lr.ph, %4, %._crit_edge
  tail call void @ERR_new() #14
  tail call void @ERR_set_debug(ptr noundef nonnull @.str.2, i32 noundef 3335, ptr noundef nonnull @__func__.tls12_copy_sigalgs) #14
  tail call void (i32, i32, ptr, ...) @ERR_set_error(i32 noundef 20, i32 noundef 118, ptr noundef null) #14
  br label %.loopexit

.loopexit:                                        ; preds = %26, %._crit_edge, %._crit_edge.thread
  %.2 = phi i32 [ 0, %._crit_edge.thread ], [ %.123.ph, %._crit_edge ], [ 0, %26 ]
  ret i32 %.2
}